target datalayout = "e-m:e-p270:32:32-p271:32:32-p272:64:64-i64:64-i128:128-f80:128-n8:16:32:64-S128"
target triple = "x86_64-unknown-linux-gnu"

%struct.aiScene = type { i32, ptr, i32, ptr, i32, ptr, i32, ptr, i32, ptr, i32, ptr, i32, ptr, ptr, %struct.aiString, i32, ptr, ptr }
%struct.aiString = type { i32, [1024 x i8] }
%struct.aiMesh = type { i32, i32, i32, ptr, ptr, ptr, ptr, [8 x ptr], [8 x ptr], [8 x i32], ptr, i32, ptr, i32, %struct.aiString, i32, ptr, i32, %struct.aiAABB, ptr }
%struct.aiAABB = type { %class.aiVector3t, %class.aiVector3t }
%class.aiVector3t = type { float, float, float }

@.str = private unnamed_addr constant [29 x i8] c"DropFaceNormalsProcess begin\00", align 1
@.str.1 = private unnamed_addr constant [83 x i8] c"Post-processing order mismatch: expecting pseudo-indexed (\22verbose\22) vertices here\00", align 1
@_ZTI17DeadlyImportError = linkonce_odr constant { ptr, ptr, ptr } { ptr getelementptr inbounds (ptr, ptr @_ZTVN10__cxxabiv120__si_class_type_infoE, i64 2), ptr @_ZTS17DeadlyImportError, ptr @_ZTI15DeadlyErrorBase }, comdat, align 8
@.str.2 = private unnamed_addr constant [64 x i8] c"DropFaceNormalsProcess finished. Face normals have been removed\00", align 1
@.str.3 = private unnamed_addr constant [57 x i8] c"DropFaceNormalsProcess finished. No normals were present\00", align 1

; Function Attrs: mustprogress nounwind uwtable
define hidden noundef zeroext i1 @_ZN6Assimp22DropFaceNormalsProcess19DropMeshFaceNormalsEP6aiMesh(ptr noundef nonnull align 8 dereferenceable(24) %this, ptr noundef %mesh) #0 align 2 {
entry:
  %retval = alloca i1, align 1
  %this.addr = alloca ptr, align 8
  %mesh.addr = alloca ptr, align 8
  store ptr %this, ptr %this.addr, align 8
  store ptr %mesh, ptr %mesh.addr, align 8
  %0 = load ptr, ptr %mesh.addr, align 8
  %mNormals = getelementptr inbounds %struct.aiMesh, ptr %0, i32 0, i32 4
  %1 = load ptr, ptr %mNormals, align 8
  %cmp = icmp eq ptr null, %1
  br i1 %cmp, label %if.then, label %if.end

if.then:                                          ; preds = %entry
  store i1 false, ptr %retval, align 1
  br label %return

if.end:                                           ; preds = %entry
  %2 = load ptr, ptr %mesh.addr, align 8
  %mNormals2 = getelementptr inbounds %struct.aiMesh, ptr %2, i32 0, i32 4
  %3 = load ptr, ptr %mNormals2, align 8
  %isnull = icmp eq ptr %3, null
  br i1 %isnull, label %delete.end, label %delete.notnull

delete.notnull:                                   ; preds = %if.end
  call void @_ZdaPv(ptr noundef %3) #9
  br label %delete.end

delete.end:                                       ; preds = %delete.notnull, %if.end
  %4 = load ptr, ptr %mesh.addr, align 8
  %mNormals3 = getelementptr inbounds %struct.aiMesh, ptr %4, i32 0, i32 4
  store ptr null, ptr %mNormals3, align 8
  store i1 true, ptr %retval, align 1
  br label %return

return:                                           ; preds = %delete.end, %if.then
  %5 = load i1, ptr %retval, align 1
  ret i1 %5
}

; Function Attrs: mustprogress uwtable
define hidden void @_ZN6Assimp22DropFaceNormalsProcess7ExecuteEP7aiScene(ptr noundef nonnull align 8 dereferenceable(24) %this, ptr noundef %pScene) unnamed_addr #2 align 2 personality ptr @__gxx_personality_v0 {
entry:
  %this.addr = alloca ptr, align 8
  %pScene.addr = alloca ptr, align 8
  %exn.slot = alloca ptr, align 8
  %ehselector.slot = alloca i32, align 4
  %bHas = alloca i8, align 1
  %a = alloca i32, align 4
  store ptr %this, ptr %this.addr, align 8
  store ptr %pScene, ptr %pScene.addr, align 8
  %this1 = load ptr, ptr %this.addr, align 8
  %call = call noundef ptr @_ZN6Assimp13DefaultLogger3getEv()
  call void @_ZN6Assimp6Logger5debugEPKc(ptr noundef nonnull align 8 dereferenceable(12) %call, ptr noundef @.str)
  %0 = load ptr, ptr %pScene.addr, align 8
  %mFlags = getelementptr inbounds %struct.aiScene, ptr %0, i32 0, i32 0
  %1 = load i32, ptr %mFlags, align 8
  %and = and i32 %1, 8
  %tobool = icmp ne i32 %and, 0
  br i1 %tobool, label %if.then, label %if.end

if.then:                                          ; preds = %entry
  %exception = call ptr @__cxa_allocate_exception(i64 16) #7
  invoke void @_ZN17DeadlyImportErrorC2EPKc(ptr noundef nonnull align 8 dereferenceable(16) %exception, ptr noundef @.str.1)
          to label %invoke.cont unwind label %lpad

invoke.cont:                                      ; preds = %if.then
  call void @__cxa_throw(ptr %exception, ptr @_ZTI17DeadlyImportError, ptr @_ZN17DeadlyImportErrorD2Ev) #8
  unreachable

lpad:                                             ; preds = %if.then
  %2 = landingpad { ptr, i32 }
          cleanup
  %3 = extractvalue { ptr, i32 } %2, 0
  store ptr %3, ptr %exn.slot, align 8
  %4 = extractvalue { ptr, i32 } %2, 1
  store i32 %4, ptr %ehselector.slot, align 4
  call void @__cxa_free_exception(ptr %exception) #7
  br label %eh.resume

if.end:                                           ; preds = %entry
  store i8 0, ptr %bHas, align 1
  store i32 0, ptr %a, align 4
  br label %for.cond

for.cond:                                         ; preds = %for.inc, %if.end
  %5 = load i32, ptr %a, align 4
  %6 = load ptr, ptr %pScene.addr, align 8
  %mNumMeshes = getelementptr inbounds %struct.aiScene, ptr %6, i32 0, i32 2
  %7 = load i32, ptr %mNumMeshes, align 8
  %cmp = icmp ult i32 %5, %7
  br i1 %cmp, label %for.body, label %for.end

for.body:                                         ; preds = %for.cond
  %8 = load ptr, ptr %pScene.addr, align 8
  %mMeshes = getelementptr inbounds %struct.aiScene, ptr %8, i32 0, i32 3
  %9 = load ptr, ptr %mMeshes, align 8
  %10 = load i32, ptr %a, align 4
  %idxprom = zext i32 %10 to i64
  %arrayidx = getelementptr inbounds ptr, ptr %9, i64 %idxprom
  %11 = load ptr, ptr %arrayidx, align 8
  %call2 = call noundef zeroext i1 @_ZN6Assimp22DropFaceNormalsProcess19DropMeshFaceNormalsEP6aiMesh(ptr noundef nonnull align 8 dereferenceable(24) %this1, ptr noundef %11)
  %conv = zext i1 %call2 to i32
  %12 = load i8, ptr %bHas, align 1
  %tobool3 = trunc i8 %12 to i1
  %conv4 = zext i1 %tobool3 to i32
  %or = or i32 %conv4, %conv
  %tobool5 = icmp ne i32 %or, 0
  %frombool = zext i1 %tobool5 to i8
  store i8 %frombool, ptr %bHas, align 1
  br label %for.inc

for.inc:                                          ; preds = %for.body
  %13 = load i32, ptr %a, align 4
  %inc = add i32 %13, 1
  store i32 %inc, ptr %a, align 4
  br label %for.cond, !llvm.loop !4

for.end:                                          ; preds = %for.cond
  %14 = load i8, ptr %bHas, align 1
  %tobool6 = trunc i8 %14 to i1
  br i1 %tobool6, label %if.then7, label %if.else

if.then7:                                         ; preds = %for.end
  %call8 = call noundef ptr @_ZN6Assimp13DefaultLogger3getEv()
  call void @_ZN6Assimp6Logger4infoEPKc(ptr noundef nonnull align 8 dereferenceable(12) %call8, ptr noundef @.str.2)
  br label %if.end10

if.else:                                          ; preds = %for.end
  %call9 = call noundef ptr @_ZN6Assimp13DefaultLogger3getEv()
  call void @_ZN6Assimp6Logger5debugEPKc(ptr noundef nonnull align 8 dereferenceable(12) %call9, ptr noundef @.str.3)
  br label %if.end10

if.end10:                                         ; preds = %if.else, %if.then7
  ret void

eh.resume:                                        ; preds = %lpad
  %exn = load ptr, ptr %exn.slot, align 8
  %sel = load i32, ptr %ehselector.slot, align 4
  %lpad.val = insertvalue { ptr, i32 } poison, ptr %exn, 0
  %lpad.val11 = insertvalue { ptr, i32 } %lpad.val, i32 %sel, 1
  resume { ptr, i32 } %lpad.val11
}