; Function Attrs: mustprogress uwtable
define hidden void @_ZN6Assimp22DropFaceNormalsProcess7ExecuteEP7aiScene(ptr nocapture nonnull readnone align 8 %this, ptr nocapture noundef readonly %pScene) unnamed_addr #1 align 2 personality ptr @__gxx_personality_v0 {
entry:
  %call = tail call noundef ptr @_ZN6Assimp13DefaultLogger3getEv()
  tail call void @_ZN6Assimp6Logger5debugEPKc(ptr noundef nonnull align 8 dereferenceable(12) %call, ptr noundef nonnull @.str)
  %0 = load i32, ptr %pScene, align 8
  %and = and i32 %0, 8
  %tobool.not = icmp eq i32 %and, 0
  br i1 %tobool.not, label %for.cond.preheader, label %if.then

for.cond.preheader:                               ; preds = %entry
  %mNumMeshes = getelementptr inbounds i8, ptr %pScene, i64 16
  %1 = load i32, ptr %mNumMeshes, align 8
  %cmp7.not = icmp eq i32 %1, 0
  br i1 %cmp7.not, label %if.else, label %for.body.lr.ph

for.body.lr.ph:                                   ; preds = %for.cond.preheader
  %mMeshes = getelementptr inbounds i8, ptr %pScene, i64 24
  br label %for.body

if.then:                                          ; preds = %entry
  %exception = tail call ptr @__cxa_allocate_exception(i64 16) #7
  invoke void @_ZN17DeadlyImportErrorC2EPKc(ptr noundef nonnull align 8 dereferenceable(16) %exception, ptr noundef nonnull @.str.1)
          to label %invoke.cont unwind label %lpad

invoke.cont:                                      ; preds = %if.then
  tail call void @__cxa_throw(ptr nonnull %exception, ptr nonnull @_ZTI17DeadlyImportError, ptr nonnull @_ZN17DeadlyImportErrorD2Ev) #8
  unreachable

lpad:                                             ; preds = %if.then
  %2 = landingpad { ptr, i32 }
          cleanup
  tail call void @__cxa_free_exception(ptr %exception) #7
  resume { ptr, i32 } %2

for.body:                                         ; preds = %for.body.lr.ph, %_ZN6Assimp22DropFaceNormalsProcess19DropMeshFaceNormalsEP6aiMesh.exit
  %3 = phi i32 [ %1, %for.body.lr.ph ], [ %7, %_ZN6Assimp22DropFaceNormalsProcess19DropMeshFaceNormalsEP6aiMesh.exit ]
  %indvars.iv = phi i64 [ 0, %for.body.lr.ph ], [ %indvars.iv.next, %_ZN6Assimp22DropFaceNormalsProcess19DropMeshFaceNormalsEP6aiMesh.exit ]
  %bHas.08 = phi i1 [ false, %for.body.lr.ph ], [ %or6, %_ZN6Assimp22DropFaceNormalsProcess19DropMeshFaceNormalsEP6aiMesh.exit ]
  %4 = load ptr, ptr %mMeshes, align 8
  %arrayidx = getelementptr inbounds ptr, ptr %4, i64 %indvars.iv
  %5 = load ptr, ptr %arrayidx, align 8
  %mNormals.i = getelementptr inbounds i8, ptr %5, i64 24
  %6 = load ptr, ptr %mNormals.i, align 8
  %cmp.i = icmp ne ptr %6, null
  br i1 %cmp.i, label %delete.notnull.i, label %_ZN6Assimp22DropFaceNormalsProcess19DropMeshFaceNormalsEP6aiMesh.exit

delete.notnull.i:                                 ; preds = %for.body
  tail call void @_ZdaPv(ptr noundef nonnull %6) #9
  store ptr null, ptr %mNormals.i, align 8
  %.pre = load i32, ptr %mNumMeshes, align 8
  br label %_ZN6Assimp22DropFaceNormalsProcess19DropMeshFaceNormalsEP6aiMesh.exit

_ZN6Assimp22DropFaceNormalsProcess19DropMeshFaceNormalsEP6aiMesh.exit: ; preds = %for.body, %delete.notnull.i
  %7 = phi i32 [ %3, %for.body ], [ %.pre, %delete.notnull.i ]
  %or6 = or i1 %bHas.08, %cmp.i
  %indvars.iv.next = add nuw nsw i64 %indvars.iv, 1
  %8 = zext i32 %7 to i64
  %cmp = icmp ult i64 %indvars.iv.next, %8
  br i1 %cmp, label %for.body, label %for.end, !llvm.loop !4

for.end:                                          ; preds = %_ZN6Assimp22DropFaceNormalsProcess19DropMeshFaceNormalsEP6aiMesh.exit
  br i1 %or6, label %if.then7, label %if.else

if.then7:                                         ; preds = %for.end
  %call8 = tail call noundef ptr @_ZN6Assimp13DefaultLogger3getEv()
  tail call void @_ZN6Assimp6Logger4infoEPKc(ptr noundef nonnull align 8 dereferenceable(12) %call8, ptr noundef nonnull @.str.2)
  br label %if.end10

if.else:                                          ; preds = %for.cond.preheader, %for.end
  %call9 = tail call noundef ptr @_ZN6Assimp13DefaultLogger3getEv()
  tail call void @_ZN6Assimp6Logger5debugEPKc(ptr noundef nonnull align 8 dereferenceable(12) %call9, ptr noundef nonnull @.str.3)
  br label %if.end10

if.end10:                                         ; preds = %if.else, %if.then7
  ret void
}